; Function Attrs: nounwind uwtable
define ptr @l_Lean_Elab_Tactic_NormCast_elabNormCastConfig___lambda__3___boxed(ptr noundef %0, ptr noundef %1, ptr noundef %2, ptr noundef %3, ptr noundef %4, ptr noundef %5, ptr noundef %6, ptr noundef %7, ptr noundef %8, ptr noundef %9) local_unnamed_addr #0 {
  %11 = ptrtoint ptr %0 to i64
  %12 = lshr i64 %11, 1
  %13 = trunc i64 %12 to i8
  %14 = and i64 %11, 1
  %.not = icmp eq i64 %14, 0
  br i1 %.not, label %15, label %lean_dec.exit13

15:                                               ; preds = %10
  %16 = load i32, ptr %0, align 4, !tbaa !8
  %17 = icmp sgt i32 %16, 1
  br i1 %17, label %18, label %20, !prof !11

18:                                               ; preds = %15
  %19 = add nsw i32 %16, -1
  store i32 %19, ptr %0, align 4, !tbaa !8
  br label %lean_dec.exit13

20:                                               ; preds = %15
  %.not.i = icmp eq i32 %16, 0
  br i1 %.not.i, label %lean_dec.exit13, label %21

21:                                               ; preds = %20
  tail call void @lean_dec_ref_cold(ptr noundef nonnull %0) #5
  br label %lean_dec.exit13

lean_dec.exit13:                                  ; preds = %21, %20, %18, %10
  %22 = tail call ptr @l_Lean_Elab_Tactic_NormCast_elabNormCastConfig___lambda__3(i8 noundef zeroext %13, ptr noundef %1, ptr poison, ptr noundef %3, ptr noundef %4, ptr noundef %5, ptr noundef %6, ptr noundef %7, ptr noundef %8, ptr noundef %9)
  %23 = ptrtoint ptr %2 to i64
  %24 = and i64 %23, 1
  %.not16 = icmp eq i64 %24, 0
  br i1 %.not16, label %25, label %lean_dec.exit

25:                                               ; preds = %lean_dec.exit13
  %26 = load i32, ptr %2, align 4, !tbaa !8
  %27 = icmp sgt i32 %26, 1
  br i1 %27, label %28, label %30, !prof !11

28:                                               ; preds = %25
  %29 = add nsw i32 %26, -1
  store i32 %29, ptr %2, align 4, !tbaa !8
  br label %lean_dec.exit

30:                                               ; preds = %25
  %.not.i14 = icmp eq i32 %26, 0
  br i1 %.not.i14, label %lean_dec.exit, label %31

31:                                               ; preds = %30
  tail call void @lean_dec_ref_cold(ptr noundef nonnull %2) #5
  br label %lean_dec.exit

lean_dec.exit:                                    ; preds = %31, %30, %28, %lean_dec.exit13
  ret ptr %22
}